target datalayout = "e-m:e-p270:32:32-p271:32:32-p272:64:64-i64:64-i128:128-f80:128-n8:16:32:64-S128"
target triple = "x86_64-pc-linux-gnu"

%"class.Assimp::ASE::Parser" = type <{ ptr, ptr, %struct.aiColor3D, %struct.aiColor3D, %"class.std::vector", %"class.std::vector.0", %"class.std::vector.5", %"class.std::vector.10", %"class.std::vector.15", i32, i32, i32, i32, i32, i8, [3 x i8], i32, [4 x i8] }>
%struct.aiColor3D = type { float, float, float }
%"class.std::vector" = type { %"struct.std::_Vector_base" }
%"struct.std::_Vector_base" = type { %"struct.std::_Vector_base<Assimp::ASE::Material, std::allocator<Assimp::ASE::Material>>::_Vector_impl" }
%"struct.std::_Vector_base<Assimp::ASE::Material, std::allocator<Assimp::ASE::Material>>::_Vector_impl" = type { %"struct.std::_Vector_base<Assimp::ASE::Material, std::allocator<Assimp::ASE::Material>>::_Vector_impl_data" }
%"struct.std::_Vector_base<Assimp::ASE::Material, std::allocator<Assimp::ASE::Material>>::_Vector_impl_data" = type { ptr, ptr, ptr }
%"class.std::vector.0" = type { %"struct.std::_Vector_base.1" }
%"struct.std::_Vector_base.1" = type { %"struct.std::_Vector_base<Assimp::ASE::Mesh, std::allocator<Assimp::ASE::Mesh>>::_Vector_impl" }
%"struct.std::_Vector_base<Assimp::ASE::Mesh, std::allocator<Assimp::ASE::Mesh>>::_Vector_impl" = type { %"struct.std::_Vector_base<Assimp::ASE::Mesh, std::allocator<Assimp::ASE::Mesh>>::_Vector_impl_data" }
%"struct.std::_Vector_base<Assimp::ASE::Mesh, std::allocator<Assimp::ASE::Mesh>>::_Vector_impl_data" = type { ptr, ptr, ptr }
%"class.std::vector.5" = type { %"struct.std::_Vector_base.6" }
%"struct.std::_Vector_base.6" = type { %"struct.std::_Vector_base<Assimp::ASE::Dummy, std::allocator<Assimp::ASE::Dummy>>::_Vector_impl" }
%"struct.std::_Vector_base<Assimp::ASE::Dummy, std::allocator<Assimp::ASE::Dummy>>::_Vector_impl" = type { %"struct.std::_Vector_base<Assimp::ASE::Dummy, std::allocator<Assimp::ASE::Dummy>>::_Vector_impl_data" }
%"struct.std::_Vector_base<Assimp::ASE::Dummy, std::allocator<Assimp::ASE::Dummy>>::_Vector_impl_data" = type { ptr, ptr, ptr }
%"class.std::vector.10" = type { %"struct.std::_Vector_base.11" }
%"struct.std::_Vector_base.11" = type { %"struct.std::_Vector_base<Assimp::ASE::Light, std::allocator<Assimp::ASE::Light>>::_Vector_impl" }
%"struct.std::_Vector_base<Assimp::ASE::Light, std::allocator<Assimp::ASE::Light>>::_Vector_impl" = type { %"struct.std::_Vector_base<Assimp::ASE::Light, std::allocator<Assimp::ASE::Light>>::_Vector_impl_data" }
%"struct.std::_Vector_base<Assimp::ASE::Light, std::allocator<Assimp::ASE::Light>>::_Vector_impl_data" = type { ptr, ptr, ptr }
%"class.std::vector.15" = type { %"struct.std::_Vector_base.16" }
%"struct.std::_Vector_base.16" = type { %"struct.std::_Vector_base<Assimp::ASE::Camera, std::allocator<Assimp::ASE::Camera>>::_Vector_impl" }
%"struct.std::_Vector_base<Assimp::ASE::Camera, std::allocator<Assimp::ASE::Camera>>::_Vector_impl" = type { %"struct.std::_Vector_base<Assimp::ASE::Camera, std::allocator<Assimp::ASE::Camera>>::_Vector_impl_data" }
%"struct.std::_Vector_base<Assimp::ASE::Camera, std::allocator<Assimp::ASE::Camera>>::_Vector_impl_data" = type { ptr, ptr, ptr }

@.str = private unnamed_addr constant [12 x i8] c"Line %u: %s\00", align 1
@.str.1 = private unnamed_addr constant [77 x i8] c"Unable to parse block: Unexpected EOF, closing bracket '}' was expected [#1]\00", align 1

; Function Attrs: inlinehint mustprogress nounwind uwtable
define linkonce_odr hidden noundef zeroext i1 @_ZN6Assimp9IsLineEndIcEEbT_(i8 noundef signext %0) #2 comdat {
  %2 = alloca i8, align 1
  store i8 %0, ptr %2, align 1
  %3 = load i8, ptr %2, align 1
  %4 = sext i8 %3 to i32
  %5 = icmp eq i32 %4, 13
  br i1 %5, label %18, label %6

6:                                                ; preds = %1
  %7 = load i8, ptr %2, align 1
  %8 = sext i8 %7 to i32
  %9 = icmp eq i32 %8, 10
  br i1 %9, label %18, label %10

10:                                               ; preds = %6
  %11 = load i8, ptr %2, align 1
  %12 = sext i8 %11 to i32
  %13 = icmp eq i32 %12, 0
  br i1 %13, label %18, label %14

14:                                               ; preds = %10
  %15 = load i8, ptr %2, align 1
  %16 = sext i8 %15 to i32
  %17 = icmp eq i32 %16, 12
  br label %18

18:                                               ; preds = %14, %10, %6, %1
  %19 = phi i1 [ true, %10 ], [ true, %6 ], [ true, %1 ], [ %17, %14 ]
  ret i1 %19
}

; Function Attrs: mustprogress uwtable
define hidden void @_ZN6Assimp3ASE6Parser10LogWarningEPKc(ptr noundef nonnull align 8 dereferenceable(188) %0, ptr noundef %1) #0 align 2 {
  %3 = alloca ptr, align 8
  %4 = alloca ptr, align 8
  %5 = alloca [2048 x i8], align 16
  store ptr %0, ptr %3, align 8
  store ptr %1, ptr %4, align 8
  %6 = load ptr, ptr %3, align 8
  call void @llvm.lifetime.start.p0(i64 2048, ptr %5) #20
  %7 = getelementptr inbounds [2048 x i8], ptr %5, i64 0, i64 0
  %8 = getelementptr inbounds nuw %"class.Assimp::ASE::Parser", ptr %6, i32 0, i32 9
  %9 = load i32, ptr %8, align 8
  %10 = load ptr, ptr %4, align 8
  %11 = call i32 (ptr, i64, ptr, ...) @snprintf(ptr noundef %7, i64 noundef 2048, ptr noundef @.str, i32 noundef %9, ptr noundef %10) #20
  %12 = call noundef ptr @_ZN6Assimp13DefaultLogger3getEv()
  call void @_ZN6Assimp6Logger4warnIJRA2048_cEEEvDpOT_(ptr noundef nonnull align 8 dereferenceable(12) %12, ptr noundef nonnull align 1 dereferenceable(2048) %5)
  call void @llvm.lifetime.end.p0(i64 2048, ptr %5) #20
  ret void
}

; Function Attrs: mustprogress uwtable
define hidden noundef zeroext i1 @_ZN6Assimp3ASE6Parser15SkipToNextTokenEv(ptr noundef nonnull align 8 dereferenceable(188) %0) #0 align 2 {
  %2 = alloca i1, align 1
  %3 = alloca ptr, align 8
  %4 = alloca i8, align 1
  %5 = alloca i32, align 4
  store ptr %0, ptr %3, align 8
  %6 = load ptr, ptr %3, align 8
  br label %7

7:                                                ; preds = %1, %55
  call void @llvm.lifetime.start.p0(i64 1, ptr %4) #20
  %8 = getelementptr inbounds nuw %"class.Assimp::ASE::Parser", ptr %6, i32 0, i32 0
  %9 = load ptr, ptr %8, align 8
  %10 = load i8, ptr %9, align 1
  store i8 %10, ptr %4, align 1
  %11 = getelementptr inbounds nuw %"class.Assimp::ASE::Parser", ptr %6, i32 0, i32 0
  %12 = load ptr, ptr %11, align 8
  %13 = getelementptr inbounds nuw %"class.Assimp::ASE::Parser", ptr %6, i32 0, i32 1
  %14 = load ptr, ptr %13, align 8
  %15 = icmp eq ptr %12, %14
  br i1 %15, label %16, label %17

16:                                               ; preds = %7
  store i1 false, ptr %2, align 1
  store i32 1, ptr %5, align 4
  br label %53

17:                                               ; preds = %7
  %18 = load i8, ptr %4, align 1
  %19 = call noundef zeroext i1 @_ZN6Assimp9IsLineEndIcEEbT_(i8 noundef signext %18)
  br i1 %19, label %20, label %29

20:                                               ; preds = %17
  %21 = getelementptr inbounds nuw %"class.Assimp::ASE::Parser", ptr %6, i32 0, i32 14
  %22 = load i8, ptr %21, align 4, !range !3, !noundef !4
  %23 = trunc i8 %22 to i1
  br i1 %23, label %29, label %24

24:                                               ; preds = %20
  %25 = getelementptr inbounds nuw %"class.Assimp::ASE::Parser", ptr %6, i32 0, i32 9
  %26 = load i32, ptr %25, align 8
  %27 = add i32 %26, 1
  store i32 %27, ptr %25, align 8
  %28 = getelementptr inbounds nuw %"class.Assimp::ASE::Parser", ptr %6, i32 0, i32 14
  store i8 1, ptr %28, align 4
  br label %31

29:                                               ; preds = %20, %17
  %30 = getelementptr inbounds nuw %"class.Assimp::ASE::Parser", ptr %6, i32 0, i32 14
  store i8 0, ptr %30, align 4
  br label %31

31:                                               ; preds = %29, %24
  %32 = load i8, ptr %4, align 1
  %33 = sext i8 %32 to i32
  %34 = icmp eq i32 42, %33
  br i1 %34, label %43, label %35

35:                                               ; preds = %31
  %36 = load i8, ptr %4, align 1
  %37 = sext i8 %36 to i32
  %38 = icmp eq i32 125, %37
  br i1 %38, label %43, label %39

39:                                               ; preds = %35
  %40 = load i8, ptr %4, align 1
  %41 = sext i8 %40 to i32
  %42 = icmp eq i32 123, %41
  br i1 %42, label %43, label %44

43:                                               ; preds = %39, %35, %31
  store i1 true, ptr %2, align 1
  store i32 1, ptr %5, align 4
  br label %53

44:                                               ; preds = %39
  %45 = load i8, ptr %4, align 1
  %46 = sext i8 %45 to i32
  %47 = icmp eq i32 0, %46
  br i1 %47, label %48, label %49

48:                                               ; preds = %44
  store i1 false, ptr %2, align 1
  store i32 1, ptr %5, align 4
  br label %53

49:                                               ; preds = %44
  %50 = getelementptr inbounds nuw %"class.Assimp::ASE::Parser", ptr %6, i32 0, i32 0
  %51 = load ptr, ptr %50, align 8
  %52 = getelementptr inbounds nuw i8, ptr %51, i32 1
  store ptr %52, ptr %50, align 8
  store i32 0, ptr %5, align 4
  br label %53

53:                                               ; preds = %49, %48, %43, %16
  call void @llvm.lifetime.end.p0(i64 1, ptr %4) #20
  %54 = load i32, ptr %5, align 4
  switch i32 %54, label %58 [
    i32 0, label %55
    i32 1, label %56
  ]

55:                                               ; preds = %53
  br label %7, !llvm.loop !5

56:                                               ; preds = %53
  %57 = load i1, ptr %2, align 1
  ret i1 %57

58:                                               ; preds = %53
  unreachable
}

; Function Attrs: mustprogress uwtable
define hidden noundef zeroext i1 @_ZN6Assimp3ASE6Parser11SkipSectionEv(ptr noundef nonnull align 8 dereferenceable(188) %0) #0 align 2 {
  %2 = alloca i1, align 1
  %3 = alloca ptr, align 8
  %4 = alloca i32, align 4
  %5 = alloca i32, align 4
  store ptr %0, ptr %3, align 8
  %6 = load ptr, ptr %3, align 8
  call void @llvm.lifetime.start.p0(i64 4, ptr %4) #20
  store i32 0, ptr %4, align 4
  br label %7

7:                                                ; preds = %53, %1
  br label %8

8:                                                ; preds = %7
  %9 = getelementptr inbounds nuw %"class.Assimp::ASE::Parser", ptr %6, i32 0, i32 0
  %10 = load ptr, ptr %9, align 8
  %11 = load i8, ptr %10, align 1
  %12 = sext i8 %11 to i32
  %13 = icmp eq i32 125, %12
  br i1 %13, label %14, label %25

14:                                               ; preds = %8
  %15 = load i32, ptr %4, align 4
  %16 = add nsw i32 %15, -1
  store i32 %16, ptr %4, align 4
  %17 = load i32, ptr %4, align 4
  %18 = icmp eq i32 0, %17
  br i1 %18, label %19, label %24

19:                                               ; preds = %14
  %20 = getelementptr inbounds nuw %"class.Assimp::ASE::Parser", ptr %6, i32 0, i32 0
  %21 = load ptr, ptr %20, align 8
  %22 = getelementptr inbounds nuw i8, ptr %21, i32 1
  store ptr %22, ptr %20, align 8
  %23 = call noundef zeroext i1 @_ZN6Assimp3ASE6Parser15SkipToNextTokenEv(ptr noundef nonnull align 8 dereferenceable(188) %6)
  store i1 true, ptr %2, align 1
  store i32 1, ptr %5, align 4
  br label %57

24:                                               ; preds = %14
  br label %53

25:                                               ; preds = %8
  %26 = getelementptr inbounds nuw %"class.Assimp::ASE::Parser", ptr %6, i32 0, i32 0
  %27 = load ptr, ptr %26, align 8
  %28 = load i8, ptr %27, align 1
  %29 = sext i8 %28 to i32
  %30 = icmp eq i32 123, %29
  br i1 %30, label %31, label %34

31:                                               ; preds = %25
  %32 = load i32, ptr %4, align 4
  %33 = add nsw i32 %32, 1
  store i32 %33, ptr %4, align 4
  br label %52

34:                                               ; preds = %25
  %35 = getelementptr inbounds nuw %"class.Assimp::ASE::Parser", ptr %6, i32 0, i32 0
  %36 = load ptr, ptr %35, align 8
  %37 = load i8, ptr %36, align 1
  %38 = sext i8 %37 to i32
  %39 = icmp eq i32 0, %38
  br i1 %39, label %40, label %41

40:                                               ; preds = %34
  call void @_ZN6Assimp3ASE6Parser10LogWarningEPKc(ptr noundef nonnull align 8 dereferenceable(188) %6, ptr noundef @.str.1)
  store i1 false, ptr %2, align 1
  store i32 1, ptr %5, align 4
  br label %57

41:                                               ; preds = %34
  %42 = getelementptr inbounds nuw %"class.Assimp::ASE::Parser", ptr %6, i32 0, i32 0
  %43 = load ptr, ptr %42, align 8
  %44 = load i8, ptr %43, align 1
  %45 = call noundef zeroext i1 @_ZN6Assimp9IsLineEndIcEEbT_(i8 noundef signext %44)
  br i1 %45, label %46, label %50

46:                                               ; preds = %41
  %47 = getelementptr inbounds nuw %"class.Assimp::ASE::Parser", ptr %6, i32 0, i32 9
  %48 = load i32, ptr %47, align 8
  %49 = add i32 %48, 1
  store i32 %49, ptr %47, align 8
  br label %50

50:                                               ; preds = %46, %41
  br label %51

51:                                               ; preds = %50
  br label %52

52:                                               ; preds = %51, %31
  br label %53

53:                                               ; preds = %52, %24
  %54 = getelementptr inbounds nuw %"class.Assimp::ASE::Parser", ptr %6, i32 0, i32 0
  %55 = load ptr, ptr %54, align 8
  %56 = getelementptr inbounds nuw i8, ptr %55, i32 1
  store ptr %56, ptr %54, align 8
  br label %7, !llvm.loop !7

57:                                               ; preds = %40, %19
  call void @llvm.lifetime.end.p0(i64 4, ptr %4) #20
  %58 = load i1, ptr %2, align 1
  ret i1 %58
}