; Function Attrs: mustprogress uwtable
define hidden noundef zeroext i1 @_ZN6Assimp3ASE6Parser11SkipSectionEv(ptr noundef nonnull align 8 captures(none) dereferenceable(188) %0) local_unnamed_addr #1 align 2 {
  %2 = alloca [2048 x i8], align 16
  %.promoted = load ptr, ptr %0, align 8
  %3 = getelementptr inbounds nuw i8, ptr %0, i64 160
  %.promoted10 = load i32, ptr %3, align 8
  br label %4

4:                                                ; preds = %_ZN6Assimp9IsLineEndIcEEbT_.exit, %1
  %.promoted25.i = phi i32 [ %.promoted10, %1 ], [ %38, %_ZN6Assimp9IsLineEndIcEEbT_.exit ]
  %5 = phi ptr [ %.promoted, %1 ], [ %39, %_ZN6Assimp9IsLineEndIcEEbT_.exit ]
  %.0 = phi i32 [ 0, %1 ], [ %.1, %_ZN6Assimp9IsLineEndIcEEbT_.exit ]
  %6 = load i8, ptr %5, align 1
  %7 = icmp eq i8 %6, 125
  br i1 %7, label %8, label %30

8:                                                ; preds = %4
  %9 = add nsw i32 %.0, -1
  %10 = icmp eq i32 %9, 0
  br i1 %10, label %11, label %_ZN6Assimp9IsLineEndIcEEbT_.exit

11:                                               ; preds = %8
  %12 = getelementptr inbounds nuw i8, ptr %5, i64 1
  store ptr %12, ptr %0, align 8
  %13 = getelementptr inbounds nuw i8, ptr %0, i64 8
  %14 = load ptr, ptr %13, align 8
  %15 = icmp eq ptr %12, %14
  br i1 %15, label %_ZN6Assimp3ASE6Parser15SkipToNextTokenEv.exit, label %.lr.ph.i

.lr.ph.i:                                         ; preds = %11
  %16 = getelementptr inbounds nuw i8, ptr %0, i64 180
  %.promoted24.i = load i8, ptr %16, align 4
  br label %17

17:                                               ; preds = %27, %.lr.ph.i
  %18 = phi i32 [ %.promoted25.i, %.lr.ph.i ], [ %26, %27 ]
  %19 = phi i8 [ %.promoted24.i, %.lr.ph.i ], [ %storemerge.i, %27 ]
  %20 = phi ptr [ %12, %.lr.ph.i ], [ %28, %27 ]
  %21 = load i8, ptr %20, align 1
  switch i8 %21, label %_ZN6Assimp9IsLineEndIcEEbT_.exit.i [
    i8 13, label %22
    i8 10, label %22
    i8 0, label %22
    i8 12, label %22
  ]

22:                                               ; preds = %17, %17, %17, %17
  %23 = trunc nuw i8 %19 to i1
  br i1 %23, label %_ZN6Assimp9IsLineEndIcEEbT_.exit.i, label %24

24:                                               ; preds = %22
  %25 = add i32 %18, 1
  store i32 %25, ptr %3, align 8
  br label %_ZN6Assimp9IsLineEndIcEEbT_.exit.i

_ZN6Assimp9IsLineEndIcEEbT_.exit.i:               ; preds = %24, %22, %17
  %storemerge.i = phi i8 [ 1, %24 ], [ 0, %17 ], [ 0, %22 ]
  %26 = phi i32 [ %25, %24 ], [ %18, %17 ], [ %18, %22 ]
  store i8 %storemerge.i, ptr %16, align 4
  switch i8 %21, label %27 [
    i8 125, label %_ZN6Assimp3ASE6Parser15SkipToNextTokenEv.exit
    i8 123, label %_ZN6Assimp3ASE6Parser15SkipToNextTokenEv.exit
    i8 42, label %_ZN6Assimp3ASE6Parser15SkipToNextTokenEv.exit
    i8 0, label %_ZN6Assimp3ASE6Parser15SkipToNextTokenEv.exit
  ]

27:                                               ; preds = %_ZN6Assimp9IsLineEndIcEEbT_.exit.i
  %28 = getelementptr inbounds nuw i8, ptr %20, i64 1
  store ptr %28, ptr %0, align 8
  %29 = icmp eq ptr %28, %14
  br i1 %29, label %_ZN6Assimp3ASE6Parser15SkipToNextTokenEv.exit, label %17

30:                                               ; preds = %4
  switch i8 %6, label %_ZN6Assimp9IsLineEndIcEEbT_.exit [
    i8 123, label %31
    i8 0, label %33
    i8 13, label %36
    i8 10, label %36
    i8 12, label %36
  ]

31:                                               ; preds = %30
  %32 = add nsw i32 %.0, 1
  br label %_ZN6Assimp9IsLineEndIcEEbT_.exit

33:                                               ; preds = %30
  call void @llvm.lifetime.start.p0(i64 2048, ptr nonnull %2) #28
  %34 = call i32 (ptr, i64, ptr, ...) @snprintf(ptr noundef nonnull dereferenceable(1) %2, i64 noundef 2048, ptr noundef nonnull @.str, i32 noundef %.promoted25.i, ptr noundef nonnull @.str.1) #28
  %35 = tail call noundef ptr @_ZN6Assimp13DefaultLogger3getEv()
  call void @_ZN6Assimp6Logger4warnIJRA2048_cEEEvDpOT_(ptr noundef nonnull align 8 dereferenceable(12) %35, ptr noundef nonnull align 1 dereferenceable(2048) %2)
  call void @llvm.lifetime.end.p0(i64 2048, ptr nonnull %2) #28
  br label %_ZN6Assimp3ASE6Parser15SkipToNextTokenEv.exit

36:                                               ; preds = %30, %30, %30
  %37 = add i32 %.promoted25.i, 1
  store i32 %37, ptr %3, align 8
  br label %_ZN6Assimp9IsLineEndIcEEbT_.exit

_ZN6Assimp9IsLineEndIcEEbT_.exit:                 ; preds = %30, %31, %36, %8
  %38 = phi i32 [ %.promoted25.i, %8 ], [ %.promoted25.i, %31 ], [ %37, %36 ], [ %.promoted25.i, %30 ]
  %.1 = phi i32 [ %9, %8 ], [ %32, %31 ], [ %.0, %36 ], [ %.0, %30 ]
  %39 = getelementptr inbounds nuw i8, ptr %5, i64 1
  store ptr %39, ptr %0, align 8
  br label %4, !llvm.loop !29

_ZN6Assimp3ASE6Parser15SkipToNextTokenEv.exit:    ; preds = %27, %_ZN6Assimp9IsLineEndIcEEbT_.exit.i, %_ZN6Assimp9IsLineEndIcEEbT_.exit.i, %_ZN6Assimp9IsLineEndIcEEbT_.exit.i, %_ZN6Assimp9IsLineEndIcEEbT_.exit.i, %11, %33
  ret i1 %7
}